(dp1
S'failed'
p2
(lp3
S'1'
aS'2'
aS'3'
aS'4'
asS'source_names'
p4
(lp5
S'scripts/tests'
p6
asS'ids'
p7
(dp8
I1
(S'/Users/rich/Siyavula/bookbuilder/scripts/tests/book_structure_tests.py'
p9
S'tests.book_structure_tests'
p10
Ntp11
sI2
(S'/Users/rich/Siyavula/bookbuilder/scripts/tests/exercise_extraction_tests.py'
S'tests.exercise_extraction_tests'
p12
S'ExerciseExtractorTests.test_exercise_file_contents'
tp13
sI3
(S'/Users/rich/Siyavula/bookbuilder/scripts/tests/exercise_extraction_tests.py'
g12
S'ExerciseExtractorTests.test_exercise_file_list'
tp14
sI4
(S'/Users/rich/Siyavula/bookbuilder/scripts/tests/number_script_tests.py'
p15
S'tests.number_script_tests'
p16
Ntp17
ss.